ARM GAS  C:\Users\Louis\AppData\Local\Temp\cc6I4wPK.s 			page 1


   1              		.syntax unified
   2              		.cpu cortex-m3
   3              		.fpu softvfp
   4              		.eabi_attribute 20, 1
   5              		.eabi_attribute 21, 1
   6              		.eabi_attribute 23, 3
   7              		.eabi_attribute 24, 1
   8              		.eabi_attribute 25, 1
   9              		.eabi_attribute 26, 1
  10              		.eabi_attribute 30, 1
  11              		.eabi_attribute 34, 1
  12              		.eabi_attribute 18, 4
  13              		.thumb
  14              		.syntax unified
  15              		.file	"main.c"
  16              		.text
  17              	.Ltext0:
  18              		.cfi_sections	.debug_frame
  19              		.section	.text.getDistance,"ax",%progbits
  20              		.align	2
  21              		.global	getDistance
  22              		.thumb
  23              		.thumb_func
  24              		.type	getDistance, %function
  25              	getDistance:
  26              	.LFB65:
  27              		.file 1 "main.c"
   1:main.c        **** /* ========================================
   2:main.c        ****  *
   3:main.c        ****  * Copyright YOUR COMPANY, THE YEAR
   4:main.c        ****  * All Rights Reserved
   5:main.c        ****  * UNPUBLISHED, LICENSED SOFTWARE.
   6:main.c        ****  *
   7:main.c        ****  * CONFIDENTIAL AND PROPRIETARY INFORMATION
   8:main.c        ****  * WHICH IS THE PROPERTY OF your company.
   9:main.c        ****  *
  10:main.c        ****  * ========================================
  11:main.c        **** */
  12:main.c        **** #include "project.h"
  13:main.c        **** #include "stdio.h"
  14:main.c        **** 
  15:main.c        **** CY_ISR_PROTO(ISR_UART_rx_handler);
  16:main.c        **** 
  17:main.c        **** int getDistance();
  18:main.c        **** 
  19:main.c        **** 
  20:main.c        **** int main(void)
  21:main.c        **** {
  22:main.c        ****     CyGlobalIntEnable; /* Enable global interrupts. */
  23:main.c        **** 
  24:main.c        ****     /* Place your initialization/startup code here (e.g. MyInst_Start()) */
  25:main.c        ****     UART_1_Start();
  26:main.c        ****     
  27:main.c        ****     UART_1_PutString("Ultrasonic sensor\r\n");
  28:main.c        ****     
  29:main.c        ****     char buffer[255];
  30:main.c        ****     float cm;
ARM GAS  C:\Users\Louis\AppData\Local\Temp\cc6I4wPK.s 			page 2


  31:main.c        **** 
  32:main.c        ****     
  33:main.c        ****     for(;;)
  34:main.c        ****     {
  35:main.c        ****         cm = (getDistance()-2.8214)/4.6726;        
  36:main.c        ****         
  37:main.c        ****         snprintf(buffer,255, "The distance for sensor: %.2f cm \n\r", cm);
  38:main.c        ****         UART_1_PutString(buffer); 
  39:main.c        ****         
  40:main.c        ****         CyDelay(1000);
  41:main.c        ****     }
  42:main.c        **** }
  43:main.c        **** 
  44:main.c        **** int getDistance()
  45:main.c        **** {
  28              		.loc 1 45 0
  29              		.cfi_startproc
  30              		@ args = 0, pretend = 0, frame = 0
  31              		@ frame_needed = 0, uses_anonymous_args = 0
  32 0000 10B5     		push	{r4, lr}
  33              		.cfi_def_cfa_offset 8
  34              		.cfi_offset 4, -8
  35              		.cfi_offset 14, -4
  36              	.LVL0:
  46:main.c        ****     int counter = 0, tooLong = 0;
  47:main.c        ****     
  48:main.c        ****     Pin_S1_Trig_Write(0);
  37              		.loc 1 48 0
  38 0002 0020     		movs	r0, #0
  39 0004 FFF7FEFF 		bl	Pin_S1_Trig_Write
  40              	.LVL1:
  49:main.c        ****     CyDelayUs(2);
  41              		.loc 1 49 0
  42 0008 0220     		movs	r0, #2
  43 000a FFF7FEFF 		bl	CyDelayUs
  44              	.LVL2:
  50:main.c        **** 
  51:main.c        ****     Pin_S1_Trig_Write(1);
  45              		.loc 1 51 0
  46 000e 0120     		movs	r0, #1
  47 0010 FFF7FEFF 		bl	Pin_S1_Trig_Write
  48              	.LVL3:
  52:main.c        ****     CyDelayUs(10);
  49              		.loc 1 52 0
  50 0014 0A20     		movs	r0, #10
  51 0016 FFF7FEFF 		bl	CyDelayUs
  52              	.LVL4:
  53:main.c        ****     Pin_S1_Trig_Write(0);
  53              		.loc 1 53 0
  54 001a 0020     		movs	r0, #0
  55 001c FFF7FEFF 		bl	Pin_S1_Trig_Write
  56              	.LVL5:
  57              	.L2:
  54:main.c        **** 
  55:main.c        ****     while(Pin_S1_Echo_Read() != 1) //wait until return pulse starts 
  58              		.loc 1 55 0 discriminator 1
  59 0020 FFF7FEFF 		bl	Pin_S1_Echo_Read
ARM GAS  C:\Users\Louis\AppData\Local\Temp\cc6I4wPK.s 			page 3


  60              	.LVL6:
  61 0024 0128     		cmp	r0, #1
  62 0026 FBD1     		bne	.L2
  63 0028 0024     		movs	r4, #0
  64 002a 08E0     		b	.L3
  65              	.LVL7:
  66              	.L4:
  56:main.c        ****     {
  57:main.c        ****         /*tooLong++;
  58:main.c        ****         CyDelayUs(1);
  59:main.c        ****         if (tooLong > 400)
  60:main.c        ****         {
  61:main.c        ****             counter = 10000;
  62:main.c        ****             return counter;
  63:main.c        ****             break;
  64:main.c        ****         }*/
  65:main.c        ****     }
  66:main.c        ****     
  67:main.c        ****     while(Pin_S1_Echo_Read() != 0) //wait unit return pulse stops  
  68:main.c        ****     {
  69:main.c        ****         counter++;
  67              		.loc 1 69 0
  68 002c 0134     		adds	r4, r4, #1
  69              	.LVL8:
  70:main.c        ****         CyDelayUs(10);
  70              		.loc 1 70 0
  71 002e 0A20     		movs	r0, #10
  72 0030 FFF7FEFF 		bl	CyDelayUs
  73              	.LVL9:
  71:main.c        ****         if (Pin_S1_Echo_Read() == 0)
  74              		.loc 1 71 0
  75 0034 FFF7FEFF 		bl	Pin_S1_Echo_Read
  76              	.LVL10:
  77 0038 08B9     		cbnz	r0, .L3
  72:main.c        ****         {
  73:main.c        ****             return counter;
  78              		.loc 1 73 0
  79 003a 2046     		mov	r0, r4
  80 003c 10BD     		pop	{r4, pc}
  81              	.LVL11:
  82              	.L3:
  67:main.c        ****     {
  83              		.loc 1 67 0
  84 003e FFF7FEFF 		bl	Pin_S1_Echo_Read
  85              	.LVL12:
  86 0042 0028     		cmp	r0, #0
  87 0044 F2D1     		bne	.L4
  74:main.c        ****             break;
  75:main.c        ****         }
  76:main.c        ****     }
  77:main.c        **** }
  88              		.loc 1 77 0
  89 0046 10BD     		pop	{r4, pc}
  90              		.cfi_endproc
  91              	.LFE65:
  92              		.size	getDistance, .-getDistance
  93              		.global	__aeabi_i2d
ARM GAS  C:\Users\Louis\AppData\Local\Temp\cc6I4wPK.s 			page 4


  94              		.global	__aeabi_dsub
  95              		.global	__aeabi_ddiv
  96              		.global	__aeabi_d2f
  97              		.global	__aeabi_f2d
  98              		.section	.text.main,"ax",%progbits
  99              		.align	2
 100              		.global	main
 101              		.thumb
 102              		.thumb_func
 103              		.type	main, %function
 104              	main:
 105              	.LFB64:
  21:main.c        ****     CyGlobalIntEnable; /* Enable global interrupts. */
 106              		.loc 1 21 0
 107              		.cfi_startproc
 108              		@ args = 0, pretend = 0, frame = 256
 109              		@ frame_needed = 0, uses_anonymous_args = 0
 110 0000 00B5     		push	{lr}
 111              		.cfi_def_cfa_offset 4
 112              		.cfi_offset 14, -4
 113 0002 C3B0     		sub	sp, sp, #268
 114              		.cfi_def_cfa_offset 272
  22:main.c        **** 
 115              		.loc 1 22 0
 116              		.syntax unified
 117              	@ 22 "main.c" 1
 118 0004 62B6     		CPSIE   i
 119              	@ 0 "" 2
  25:main.c        ****     
 120              		.loc 1 25 0
 121              		.thumb
 122              		.syntax unified
 123 0006 FFF7FEFF 		bl	UART_1_Start
 124              	.LVL13:
  27:main.c        ****     
 125              		.loc 1 27 0
 126 000a 1748     		ldr	r0, .L9+16
 127 000c FFF7FEFF 		bl	UART_1_PutString
 128              	.LVL14:
 129              	.L7:
  35:main.c        ****         
 130              		.loc 1 35 0 discriminator 1
 131 0010 FFF7FEFF 		bl	getDistance
 132              	.LVL15:
 133 0014 FFF7FEFF 		bl	__aeabi_i2d
 134              	.LVL16:
 135 0018 0FA3     		adr	r3, .L9
 136 001a D3E90023 		ldrd	r2, [r3]
 137 001e FFF7FEFF 		bl	__aeabi_dsub
 138              	.LVL17:
 139 0022 0FA3     		adr	r3, .L9+8
 140 0024 D3E90023 		ldrd	r2, [r3]
 141 0028 FFF7FEFF 		bl	__aeabi_ddiv
 142              	.LVL18:
 143 002c FFF7FEFF 		bl	__aeabi_d2f
 144              	.LVL19:
  37:main.c        ****         UART_1_PutString(buffer); 
ARM GAS  C:\Users\Louis\AppData\Local\Temp\cc6I4wPK.s 			page 5


 145              		.loc 1 37 0 discriminator 1
 146 0030 FFF7FEFF 		bl	__aeabi_f2d
 147              	.LVL20:
 148 0034 CDE90001 		strd	r0, [sp]
 149 0038 0C4A     		ldr	r2, .L9+20
 150 003a FF21     		movs	r1, #255
 151 003c 02A8     		add	r0, sp, #8
 152 003e FFF7FEFF 		bl	snprintf
 153              	.LVL21:
  38:main.c        ****         
 154              		.loc 1 38 0 discriminator 1
 155 0042 02A8     		add	r0, sp, #8
 156 0044 FFF7FEFF 		bl	UART_1_PutString
 157              	.LVL22:
  40:main.c        ****     }
 158              		.loc 1 40 0 discriminator 1
 159 0048 4FF47A70 		mov	r0, #1000
 160 004c FFF7FEFF 		bl	CyDelay
 161              	.LVL23:
 162 0050 DEE7     		b	.L7
 163              	.L10:
 164 0052 00BFAFF3 		.align	3
 164      0080
 165              	.L9:
 166 0058 A779C729 		.word	700938663
 167 005c 3A920640 		.word	1074172474
 168 0060 8D28ED0D 		.word	233646221
 169 0064 BEB01240 		.word	1074966718
 170 0068 00000000 		.word	.LC0
 171 006c 14000000 		.word	.LC1
 172              		.cfi_endproc
 173              	.LFE64:
 174              		.size	main, .-main
 175              		.section	.rodata.str1.4,"aMS",%progbits,1
 176              		.align	2
 177              	.LC0:
 178 0000 556C7472 		.ascii	"Ultrasonic sensor\015\012\000"
 178      61736F6E 
 178      69632073 
 178      656E736F 
 178      720D0A00 
 179              	.LC1:
 180 0014 54686520 		.ascii	"The distance for sensor: %.2f cm \012\015\000"
 180      64697374 
 180      616E6365 
 180      20666F72 
 180      2073656E 
 181              		.text
 182              	.Letext0:
 183              		.file 2 "c:\\program files (x86)\\cypress\\psoc creator\\4.2\\psoc creator\\import\\gnu\\arm\\5.4.
 184              		.file 3 "c:\\program files (x86)\\cypress\\psoc creator\\4.2\\psoc creator\\import\\gnu\\arm\\5.4.
 185              		.file 4 "Generated_Source\\PSoC5/Pin_S1_Trig.h"
 186              		.file 5 "Generated_Source\\PSoC5/CyLib.h"
 187              		.file 6 "Generated_Source\\PSoC5/Pin_S1_Echo.h"
 188              		.file 7 "Generated_Source\\PSoC5/UART_1.h"
 189              		.file 8 "c:\\program files (x86)\\cypress\\psoc creator\\4.2\\psoc creator\\import\\gnu\\arm\\5.4.
 190              		.file 9 "Generated_Source\\PSoC5/core_cm3.h"
ARM GAS  C:\Users\Louis\AppData\Local\Temp\cc6I4wPK.s 			page 6

